target datalayout = "e-m:e-p270:32:32-p271:32:32-p272:64:64-i64:64-i128:128-f80:128-n8:16:32:64-S128"
target triple = "x86_64-pc-linux-gnu"

%class.OopHandle = type { ptr }
%class.XCollectedHeap = type { %class.CollectedHeap, %class.XBarrierSet, %class.XInitialize, [23 x i8], %class.XHeap, ptr, ptr, ptr, %class.XRuntimeWorkers, [48 x i8] }
%class.CollectedHeap = type { ptr, ptr, i64, i64, %class.SoftRefPolicy, %class.MemRegion, i8, i64, i32, i32, i32, i32, ptr, ptr }
%class.SoftRefPolicy = type { i8, i8 }
%class.MemRegion = type { ptr, i64 }
%class.XBarrierSet = type { %class.BarrierSet }
%class.BarrierSet = type { ptr, %class.FakeRttiSupport, ptr, ptr, ptr, ptr, ptr }
%class.FakeRttiSupport = type <{ i64, i32, [4 x i8] }>
%class.XInitialize = type { i8 }
%class.XHeap = type { %class.XWorkers, %class.XObjectAllocator, %class.XPageAllocator, %class.XPageTable, %class.XForwardingTable, [8 x i8], %class.XMark, %class.XReferenceProcessor, %class.XWeakRootsProcessor, %class.XRelocate, %class.XRelocationSet, %class.XUnload, %class.XServiceability, [8 x i8] }
%class.XWorkers = type { %class.WorkerThreads }
%class.WorkerThreads = type { ptr, ptr, ptr, i32, i32, i32, %class.WorkerTaskDispatcher }
%class.WorkerTaskDispatcher = type { ptr, i32, i32, %class.Semaphore, %class.Semaphore }
%class.Semaphore = type { %class.PosixSemaphore }
%class.PosixSemaphore = type { %union.sem_t }
%union.sem_t = type { i64, [24 x i8] }
%class.XObjectAllocator = type { i8, %class.XValue, %class.XValue, %class.XValue, %class.XValue, %class.XValue.2, %class.XValue.3 }
%class.XValue = type { i64 }
%class.XValue.2 = type { i64 }
%class.XValue.3 = type { i64 }
%class.XPageAllocator = type <{ %class.XLock, %class.XPageCache, %class.XVirtualMemoryManager, %class.XPhysicalMemoryManager, i64, i64, i64, i64, i64, i64, i64, i64, i64, %class.XList.7, i64, %class.XList.7, ptr, ptr, %class.XSafeDelete, i8, [7 x i8] }>
%class.XLock = type { %class.PlatformMutex }
%class.PlatformMutex = type { %union.pthread_mutex_t }
%union.pthread_mutex_t = type { %struct.__pthread_mutex_s }
%struct.__pthread_mutex_s = type { i32, i32, i32, i32, i32, i16, i16, %struct.__pthread_internal_list }
%struct.__pthread_internal_list = type { ptr, ptr }
%class.XPageCache = type { %class.XValue.4, %class.XList, %class.XList, i64 }
%class.XValue.4 = type { i64 }
%class.XList = type { %class.XListNode, i64 }
%class.XListNode = type { ptr, ptr }
%class.XVirtualMemoryManager = type <{ %class.XMemoryManager, i64, i8, [7 x i8] }>
%class.XMemoryManager = type { %class.XLock, %class.XList.5, %"struct.XMemoryManager::Callbacks" }
%class.XList.5 = type { %class.XListNode.6, i64 }
%class.XListNode.6 = type { ptr, ptr }
%"struct.XMemoryManager::Callbacks" = type { ptr, ptr, ptr, ptr, ptr, ptr }
%class.XPhysicalMemoryManager = type { %class.XPhysicalMemoryBacking, %class.XMemoryManager }
%class.XPhysicalMemoryBacking = type <{ i32, [4 x i8], i64, i64, i64, i64, i8, [7 x i8] }>
%class.XList.7 = type { %class.XListNode.8, i64 }
%class.XListNode.8 = type { ptr, ptr }
%class.XSafeDelete = type { %class.XSafeDeleteImpl, %class.XLock }
%class.XSafeDeleteImpl = type { ptr, i64, %class.GrowableArrayCHeap }
%class.GrowableArrayCHeap = type { %class.GrowableArrayWithAllocator }
%class.GrowableArrayWithAllocator = type { %class.GrowableArrayView }
%class.GrowableArrayView = type { %class.GrowableArrayBase, ptr }
%class.GrowableArrayBase = type { i32, i32 }
%class.XPageTable = type { %class.XGranuleMap }
%class.XGranuleMap = type { i64, ptr }
%class.XForwardingTable = type { %class.XGranuleMap.9 }
%class.XGranuleMap.9 = type { i64, ptr }
%class.XMark = type <{ ptr, ptr, [48 x i8], %class.XMarkStackAllocator, %class.XMarkStripeSet, %class.XMarkTerminate, i8, [7 x i8], i64, i64, i64, i64, i64, i64, i32, [4 x i8] }>
%class.XMarkStackAllocator = type { %class.XStackList, [56 x i8], %class.XMarkStackSpace }
%class.XStackList = type { ptr }
%class.XMarkStackSpace = type { %class.XLock, i64, i64, i64 }
%class.XMarkStripeSet = type { i64, i64, [48 x i8], [16 x %class.XMarkStripe] }
%class.XMarkStripe = type { %class.XStackList.10, [56 x i8], %class.XStackList.10, [56 x i8] }
%class.XStackList.10 = type { ptr }
%class.XMarkTerminate = type { i32, [60 x i8], i32, i32, [56 x i8] }
%class.XReferenceProcessor = type { %class.ReferenceDiscoverer, ptr, ptr, %class.XValue.11, %class.XValue.11, %class.XValue.11, %class.XValue.12, %class.XValue.13, ptr }
%class.ReferenceDiscoverer = type { ptr }
%class.XValue.11 = type { i64 }
%class.XValue.12 = type { i64 }
%class.XValue.13 = type { i64 }
%class.XWeakRootsProcessor = type { ptr }
%class.XRelocate = type { ptr }
%class.XRelocationSet = type { ptr, %class.XForwardingAllocator, ptr, i64 }
%class.XForwardingAllocator = type { ptr, ptr, ptr }
%class.XUnload = type { ptr }
%class.XServiceability = type { i64, i64, %class.XServiceabilityMemoryPool, %class.XServiceabilityMemoryManager, %class.XServiceabilityMemoryManager, ptr }
%class.XServiceabilityMemoryPool = type { %class.CollectedMemoryPool.base, [7 x i8] }
%class.CollectedMemoryPool.base = type { %class.MemoryPool.base }
%class.MemoryPool.base = type <{ ptr, ptr, i32, [4 x i8], i64, i64, i8, [7 x i8], [5 x ptr], i32, [4 x i8], %class.MemoryUsage, %class.MemoryUsage, ptr, ptr, ptr, ptr, %class.OopHandle, i8 }>
%class.MemoryUsage = type { i64, i64, i64, i64 }
%class.XServiceabilityMemoryManager = type { %class.GCMemoryManager.base, i8 }
%class.GCMemoryManager.base = type <{ %class.MemoryManager.base, [7 x i8], i64, %class.elapsedTimer, ptr, ptr, ptr, i32, i8, [10 x i8] }>
%class.MemoryManager.base = type <{ ptr, [10 x ptr], i32, [4 x i8], ptr, %class.OopHandle, i8 }>
%class.elapsedTimer = type <{ i64, i64, i8, [7 x i8] }>
%class.XRuntimeWorkers = type { %class.WorkerThreads }

@MinObjAlignment = external global i32, align 4

; Function Attrs: mustprogress nounwind uwtable
define linkonce_odr hidden noundef i64 @_Z10align_downImiTnNSt9enable_ifIXcvbsr3std11is_integralIT_EE5valueEiE4typeELi0EES1_S1_T0_(i64 noundef %0, i32 noundef %1) #1 comdat {
  %3 = alloca i64, align 8
  %4 = alloca i32, align 4
  %5 = alloca i64, align 8
  store i64 %0, ptr %3, align 8
  store i32 %1, ptr %4, align 4
  %6 = load i64, ptr %3, align 8
  %7 = load i32, ptr %4, align 4
  %8 = call noundef i32 @_ZL14alignment_maskIiTnNSt9enable_ifIXcvbsr3std11is_integralIT_EE5valueEiE4typeELi0EES1_S1_(i32 noundef %7)
  %9 = sext i32 %8 to i64
  %10 = xor i64 %9, -1
  %11 = and i64 %6, %10
  store i64 %11, ptr %5, align 8
  %12 = load i64, ptr %5, align 8
  ret i64 %12
}

; Function Attrs: mustprogress nounwind uwtable
define linkonce_odr hidden noundef i64 @_Z12checked_castImmET_T0_(i64 noundef %0) #1 comdat {
  %2 = alloca i64, align 8
  %3 = alloca i64, align 8
  store i64 %0, ptr %2, align 8
  %4 = load i64, ptr %2, align 8
  store i64 %4, ptr %3, align 8
  %5 = load i64, ptr %3, align 8
  ret i64 %5
}

; Function Attrs: mustprogress nounwind uwtable
define internal noundef i32 @_ZL14alignment_maskIiTnNSt9enable_ifIXcvbsr3std11is_integralIT_EE5valueEiE4typeELi0EES1_S1_(i32 noundef %0) #1 {
  %2 = alloca i32, align 4
  store i32 %0, ptr %2, align 4
  %3 = load i32, ptr %2, align 4
  %4 = sub nsw i32 %3, 1
  ret i32 %4
}

; Function Attrs: mustprogress nounwind uwtable
define linkonce_odr hidden noundef i64 @_Z8align_upImiTnNSt9enable_ifIXcvbsr3std11is_integralIT_EE5valueEiE4typeELi0EES1_S1_T0_(i64 noundef %0, i32 noundef %1) #1 comdat {
  %3 = alloca i64, align 8
  %4 = alloca i32, align 4
  %5 = alloca i64, align 8
  store i64 %0, ptr %3, align 8
  store i32 %1, ptr %4, align 4
  %6 = load i64, ptr %3, align 8
  %7 = load i32, ptr %4, align 4
  %8 = call noundef i32 @_ZL14alignment_maskIiTnNSt9enable_ifIXcvbsr3std11is_integralIT_EE5valueEiE4typeELi0EES1_S1_(i32 noundef %7)
  %9 = sext i32 %8 to i64
  %10 = add i64 %6, %9
  %11 = call noundef i64 @_Z12checked_castImmET_T0_(i64 noundef %10)
  store i64 %11, ptr %5, align 8
  %12 = load i64, ptr %5, align 8
  %13 = load i32, ptr %4, align 4
  %14 = call noundef i64 @_Z10align_downImiTnNSt9enable_ifIXcvbsr3std11is_integralIT_EE5valueEiE4typeELi0EES1_S1_T0_(i64 noundef %12, i32 noundef %13)
  ret i64 %14
}

; Function Attrs: mustprogress nounwind uwtable
define linkonce_odr hidden noundef i64 @_ZN5XHeap12alloc_objectEm(ptr noundef nonnull align 64 dereferenceable(4088) %0, i64 noundef %1) #1 comdat align 2 {
  %3 = alloca ptr, align 8
  %4 = alloca i64, align 8
  %5 = alloca i64, align 8
  store ptr %0, ptr %3, align 8
  store i64 %1, ptr %4, align 8
  %6 = load ptr, ptr %3, align 8
  %7 = getelementptr inbounds %class.XHeap, ptr %6, i32 0, i32 1
  %8 = load i64, ptr %4, align 8
  %9 = call noundef i64 @_ZN16XObjectAllocator12alloc_objectEm(ptr noundef nonnull align 8 dereferenceable(56) %7, i64 noundef %8)
  store i64 %9, ptr %5, align 8
  %10 = load i64, ptr %5, align 8
  %11 = icmp eq i64 %10, 0
  br i1 %11, label %12, label %13

12:                                               ; preds = %2
  call void @_ZN5XHeap13out_of_memoryEv(ptr noundef nonnull align 64 dereferenceable(4088) %6)
  br label %13

13:                                               ; preds = %12, %2
  %14 = load i64, ptr %5, align 8
  ret i64 %14
}

; Function Attrs: mustprogress nounwind uwtable
define linkonce_odr hidden noundef i64 @_ZN6XUtils14words_to_bytesEm(i64 noundef %0) #1 comdat align 2 {
  %2 = alloca i64, align 8
  store i64 %0, ptr %2, align 8
  %3 = load i64, ptr %2, align 8
  %4 = shl i64 %3, 3
  ret i64 %4
}

; Function Attrs: mustprogress nounwind uwtable
define linkonce_odr hidden noundef i64 @_Z17align_object_sizeImET_S0_(i64 noundef %0) #1 comdat {
  %2 = alloca i64, align 8
  store i64 %0, ptr %2, align 8
  %3 = load i64, ptr %2, align 8
  %4 = load i32, ptr @MinObjAlignment, align 4
  %5 = call noundef i64 @_Z8align_upImiTnNSt9enable_ifIXcvbsr3std11is_integralIT_EE5valueEiE4typeELi0EES1_S1_T0_(i64 noundef %3, i32 noundef %4)
  ret i64 %5
}

; Function Attrs: mustprogress nounwind uwtable
define hidden noundef ptr @_ZN14XCollectedHeap12mem_allocateEmPb(ptr noundef nonnull align 64 dereferenceable(4432) %0, i64 noundef %1, ptr noundef %2) unnamed_addr #1 align 2 {
  %4 = alloca ptr, align 8
  %5 = alloca i64, align 8
  %6 = alloca ptr, align 8
  %7 = alloca i64, align 8
  store ptr %0, ptr %4, align 8
  store i64 %1, ptr %5, align 8
  store ptr %2, ptr %6, align 8
  %8 = load ptr, ptr %4, align 8
  %9 = load i64, ptr %5, align 8
  %10 = call noundef i64 @_Z17align_object_sizeImET_S0_(i64 noundef %9)
  %11 = call noundef i64 @_ZN6XUtils14words_to_bytesEm(i64 noundef %10)
  store i64 %11, ptr %7, align 8
  %12 = getelementptr inbounds %class.XCollectedHeap, ptr %8, i32 0, i32 4
  %13 = load i64, ptr %7, align 8
  %14 = call noundef i64 @_ZN5XHeap12alloc_objectEm(ptr noundef nonnull align 64 dereferenceable(4088) %12, i64 noundef %13)
  %15 = inttoptr i64 %14 to ptr
  ret ptr %15
}