; Function Attrs: mustprogress nounwind uwtable
define hidden noundef ptr @_ZN14XCollectedHeap12mem_allocateEmPb(ptr noundef nonnull align 64 dereferenceable(4432) %0, i64 noundef %1, ptr nocapture readnone %2) unnamed_addr #1 align 2 {
  %4 = load i32, ptr @MinObjAlignment, align 4
  %5 = add nsw i32 %4, -1
  %6 = sext i32 %5 to i64
  %7 = add i64 %6, %1
  %8 = sub i32 0, %4
  %9 = sext i32 %8 to i64
  %10 = and i64 %7, %9
  %11 = shl i64 %10, 3
  %12 = getelementptr inbounds i8, ptr %0, i64 312
  %13 = tail call noundef i64 @_ZN16XObjectAllocator12alloc_objectEm(ptr noundef nonnull align 8 dereferenceable(56) %12, i64 noundef %11) #9
  %14 = icmp eq i64 %13, 0
  br i1 %14, label %15, label %_ZN5XHeap12alloc_objectEm.exit

15:                                               ; preds = %3
  %16 = getelementptr inbounds i8, ptr %0, i64 192
  tail call void @_ZN5XHeap13out_of_memoryEv(ptr noundef nonnull align 64 dereferenceable(4088) %16) #9
  br label %_ZN5XHeap12alloc_objectEm.exit

_ZN5XHeap12alloc_objectEm.exit:                   ; preds = %3, %15
  %17 = inttoptr i64 %13 to ptr
  ret ptr %17
}